target datalayout = "e-m:e-p270:32:32-p271:32:32-p272:64:64-i64:64-i128:128-f80:128-n8:16:32:64-S128"
target triple = "x86_64-pc-linux-gnu"

%"class.std::__cxx11::basic_string" = type { %"struct.std::__cxx11::basic_string<char>::_Alloc_hider", i64, %union.anon }
%"struct.std::__cxx11::basic_string<char>::_Alloc_hider" = type { ptr }
%union.anon = type { i64, [8 x i8] }
%struct.pj_ctx = type <{ %"class.std::__cxx11::basic_string", i32, i32, i8, i8, [6 x i8], ptr, ptr, ptr, i32, i8, [3 x i8], i32, [4 x i8], %"class.std::__cxx11::basic_string", %"class.std::vector", ptr, ptr, ptr, %"class.std::map", i8, [7 x i8], %struct.projFileApiCallbackAndData, %"class.std::__cxx11::basic_string", %"class.std::__cxx11::basic_string", i8, [7 x i8], %"class.std::__cxx11::basic_string", %struct.projNetworkCallbacksAndData, %"class.std::__cxx11::basic_string", i8, [7 x i8], %struct.projGridChunkCache, i32, i32, i32, [4 x i8] }>
%"class.std::vector" = type { %"struct.std::_Vector_base" }
%"struct.std::_Vector_base" = type { %"struct.std::_Vector_base<std::__cxx11::basic_string<char>, std::allocator<std::__cxx11::basic_string<char>>>::_Vector_impl" }
%"struct.std::_Vector_base<std::__cxx11::basic_string<char>, std::allocator<std::__cxx11::basic_string<char>>>::_Vector_impl" = type { %"struct.std::_Vector_base<std::__cxx11::basic_string<char>, std::allocator<std::__cxx11::basic_string<char>>>::_Vector_impl_data" }
%"struct.std::_Vector_base<std::__cxx11::basic_string<char>, std::allocator<std::__cxx11::basic_string<char>>>::_Vector_impl_data" = type { ptr, ptr, ptr }
%"class.std::map" = type { %"class.std::_Rb_tree" }
%"class.std::_Rb_tree" = type { %"struct.std::_Rb_tree<std::__cxx11::basic_string<char>, std::pair<const std::__cxx11::basic_string<char>, std::__cxx11::basic_string<char>>, std::_Select1st<std::pair<const std::__cxx11::basic_string<char>, std::__cxx11::basic_string<char>>>, std::less<std::__cxx11::basic_string<char>>>::_Rb_tree_impl" }
%"struct.std::_Rb_tree<std::__cxx11::basic_string<char>, std::pair<const std::__cxx11::basic_string<char>, std::__cxx11::basic_string<char>>, std::_Select1st<std::pair<const std::__cxx11::basic_string<char>, std::__cxx11::basic_string<char>>>, std::less<std::__cxx11::basic_string<char>>>::_Rb_tree_impl" = type { [8 x i8], %"struct.std::_Rb_tree_header" }
%"struct.std::_Rb_tree_header" = type { %"struct.std::_Rb_tree_node_base", i64 }
%"struct.std::_Rb_tree_node_base" = type { i32, ptr, ptr, ptr }
%struct.projFileApiCallbackAndData = type { ptr, ptr, ptr, ptr, ptr, ptr, ptr, ptr, ptr, ptr, ptr }
%struct.projNetworkCallbacksAndData = type { i8, ptr, ptr, ptr, ptr, ptr }
%struct.projGridChunkCache = type <{ i8, [7 x i8], %"class.std::__cxx11::basic_string", i64, i32, [4 x i8] }>

@.str.70 = private unnamed_addr constant [31 x i8] c"PROJ_GRID_CACHE_MAX_SIZE_BYTES\00", align 1

; Function Attrs: inlinehint mustprogress nounwind willreturn memory(read) uwtable
define available_externally i32 @atoi(ptr noundef nonnull %0) #12 {
  %2 = alloca ptr, align 8
  store ptr %0, ptr %2, align 8, !tbaa !63
  %3 = load ptr, ptr %2, align 8, !tbaa !63
  %4 = call i64 @strtol(ptr noundef %3, ptr noundef null, i32 noundef 10) #4
  %5 = trunc i64 %4 to i32
  ret i32 %5
}

; Function Attrs: mustprogress uwtable
define void @proj_grid_cache_set_max_size(ptr noundef %0, i32 noundef %1) #5 {
  %3 = alloca ptr, align 8
  %4 = alloca i32, align 4
  %5 = alloca ptr, align 8
  store ptr %0, ptr %3, align 8, !tbaa !10
  store i32 %1, ptr %4, align 4, !tbaa !62
  %6 = load ptr, ptr %3, align 8, !tbaa !10
  %7 = icmp eq ptr %6, null
  br i1 %7, label %8, label %10

8:                                                ; preds = %2
  %9 = call noundef ptr @_Z18pj_get_default_ctxv()
  store ptr %9, ptr %3, align 8, !tbaa !10
  br label %10

10:                                               ; preds = %8, %2
  %11 = load ptr, ptr %3, align 8, !tbaa !10
  call void @_Z11pj_load_iniP6pj_ctx(ptr noundef %11)
  %12 = load i32, ptr %4, align 4, !tbaa !62
  %13 = icmp slt i32 %12, 0
  br i1 %13, label %14, label %15

14:                                               ; preds = %10
  br label %20

15:                                               ; preds = %10
  %16 = load i32, ptr %4, align 4, !tbaa !62
  %17 = sext i32 %16 to i64
  %18 = mul nsw i64 %17, 1024
  %19 = mul nsw i64 %18, 1024
  br label %20

20:                                               ; preds = %15, %14
  %21 = phi i64 [ -1, %14 ], [ %19, %15 ]
  %22 = load ptr, ptr %3, align 8, !tbaa !10
  %23 = getelementptr inbounds nuw %struct.pj_ctx, ptr %22, i32 0, i32 32
  %24 = getelementptr inbounds nuw %struct.projGridChunkCache, ptr %23, i32 0, i32 3
  store i64 %21, ptr %24, align 8, !tbaa !137
  %25 = load i32, ptr %4, align 4, !tbaa !62
  %26 = icmp eq i32 %25, 0
  br i1 %26, label %27, label %45

27:                                               ; preds = %20
  call void @llvm.lifetime.start.p0(i64 8, ptr %5) #4
  %28 = call ptr @getenv(ptr noundef @.str.70) #4
  store ptr %28, ptr %5, align 8, !tbaa !63
  %29 = load ptr, ptr %5, align 8, !tbaa !63
  %30 = icmp ne ptr %29, null
  br i1 %30, label %31, label %44

31:                                               ; preds = %27
  %32 = load ptr, ptr %5, align 8, !tbaa !63
  %33 = getelementptr inbounds i8, ptr %32, i64 0
  %34 = load i8, ptr %33, align 1, !tbaa !64
  %35 = sext i8 %34 to i32
  %36 = icmp ne i32 %35, 0
  br i1 %36, label %37, label %44

37:                                               ; preds = %31
  %38 = load ptr, ptr %5, align 8, !tbaa !63
  %39 = call i32 @atoi(ptr noundef %38) #28
  %40 = sext i32 %39 to i64
  %41 = load ptr, ptr %3, align 8, !tbaa !10
  %42 = getelementptr inbounds nuw %struct.pj_ctx, ptr %41, i32 0, i32 32
  %43 = getelementptr inbounds nuw %struct.projGridChunkCache, ptr %42, i32 0, i32 3
  store i64 %40, ptr %43, align 8, !tbaa !137
  br label %44

44:                                               ; preds = %37, %31, %27
  call void @llvm.lifetime.end.p0(i64 8, ptr %5) #4
  br label %45

45:                                               ; preds = %44, %20
  ret void
}