; Function Attrs: mustprogress uwtable
define void @proj_grid_cache_set_max_size(ptr noundef %0, i32 noundef %1) local_unnamed_addr #3 {
  %3 = icmp eq ptr %0, null
  br i1 %3, label %4, label %6

4:                                                ; preds = %2
  %5 = tail call noundef ptr @_Z18pj_get_default_ctxv()
  br label %6

6:                                                ; preds = %4, %2
  %.0 = phi ptr [ %5, %4 ], [ %0, %2 ]
  tail call void @_Z11pj_load_iniP6pj_ctx(ptr noundef %.0)
  %7 = icmp slt i32 %1, 0
  %8 = zext nneg i32 %1 to i64
  %9 = shl nuw nsw i64 %8, 20
  %10 = select i1 %7, i64 -1, i64 %9
  %11 = getelementptr inbounds nuw i8, ptr %.0, i64 544
  store i64 %10, ptr %11, align 8, !tbaa !135
  %12 = icmp eq i32 %1, 0
  br i1 %12, label %13, label %20

13:                                               ; preds = %6
  %14 = tail call ptr @getenv(ptr noundef nonnull @.str.70) #30
  %.not = icmp eq ptr %14, null
  br i1 %.not, label %20, label %15

15:                                               ; preds = %13
  %16 = load i8, ptr %14, align 1, !tbaa !23
  %.not11 = icmp eq i8 %16, 0
  br i1 %.not11, label %20, label %17

17:                                               ; preds = %15
  %18 = tail call i64 @strtol(ptr noundef nonnull captures(none) %14, ptr noundef null, i32 noundef 10) #30
  %sext = shl i64 %18, 32
  %19 = ashr exact i64 %sext, 32
  store i64 %19, ptr %11, align 8, !tbaa !135
  br label %20

20:                                               ; preds = %13, %15, %17, %6
  ret void
}